target datalayout = "e-m:e-p270:32:32-p271:32:32-p272:64:64-i64:64-i128:128-f80:128-n8:16:32:64-S128"
target triple = "x86_64-pc-linux-gnu"

%"class.nanogui::Color" = type { %"struct.nanogui::Array.4" }
%"struct.nanogui::Array.4" = type { [4 x float] }
%"class.nanogui::Slider" = type { %"class.nanogui::Widget.base", float, %"class.std::function", %"class.std::function", %"struct.std::pair", %"struct.std::pair", %"class.nanogui::Color" }
%"class.nanogui::Widget.base" = type <{ %"class.nanogui::Object.base", [4 x i8], ptr, %"class.nanogui::ref", %"class.nanogui::ref.0", %"struct.nanogui::Array", %"struct.nanogui::Array", %"struct.nanogui::Array", %"class.std::vector", i8, i8, i8, i8, [4 x i8], %"class.std::__cxx11::basic_string", i32, float, i32 }>
%"class.nanogui::Object.base" = type <{ ptr, %"struct.std::atomic" }>
%"struct.std::atomic" = type { %"struct.std::__atomic_base" }
%"struct.std::__atomic_base" = type { i32 }
%"class.nanogui::ref" = type { ptr }
%"class.nanogui::ref.0" = type { ptr }
%"struct.nanogui::Array" = type { [2 x i32] }
%"class.std::vector" = type { %"struct.std::_Vector_base" }
%"struct.std::_Vector_base" = type { %"struct.std::_Vector_base<nanogui::Widget *, std::allocator<nanogui::Widget *>>::_Vector_impl" }
%"struct.std::_Vector_base<nanogui::Widget *, std::allocator<nanogui::Widget *>>::_Vector_impl" = type { %"struct.std::_Vector_base<nanogui::Widget *, std::allocator<nanogui::Widget *>>::_Vector_impl_data" }
%"struct.std::_Vector_base<nanogui::Widget *, std::allocator<nanogui::Widget *>>::_Vector_impl_data" = type { ptr, ptr, ptr }
%"class.std::__cxx11::basic_string" = type { %"struct.std::__cxx11::basic_string<char>::_Alloc_hider", i64, %union.anon }
%"struct.std::__cxx11::basic_string<char>::_Alloc_hider" = type { ptr }
%union.anon = type { i64, [8 x i8] }
%"class.std::function" = type { %"class.std::_Function_base", ptr }
%"class.std::_Function_base" = type { %"union.std::_Any_data", ptr }
%"union.std::_Any_data" = type { %"union.std::_Nocopy_types" }
%"union.std::_Nocopy_types" = type { { i64, i64 } }
%"struct.std::pair" = type { float, float }
%"class.nanogui::Widget" = type <{ %"class.nanogui::Object.base", [4 x i8], ptr, %"class.nanogui::ref", %"class.nanogui::ref.0", %"struct.nanogui::Array", %"struct.nanogui::Array", %"struct.nanogui::Array", %"class.std::vector", i8, i8, i8, i8, [4 x i8], %"class.std::__cxx11::basic_string", i32, float, i32, [4 x i8] }>

; Function Attrs: noreturn nounwind uwtable
define linkonce_odr hidden void @__clang_call_terminate(ptr noundef %0) #7 comdat {
  %2 = call ptr @__cxa_begin_catch(ptr %0) #11
  call void @_ZSt9terminatev() #12
  unreachable
}

; Function Attrs: mustprogress nounwind uwtable
define linkonce_odr dso_local noundef zeroext i1 @_ZNKSt14_Function_base8_M_emptyEv(ptr noundef nonnull align 8 dereferenceable(24) %0) #2 comdat align 2 {
  %2 = alloca ptr, align 8
  store ptr %0, ptr %2, align 8
  %3 = load ptr, ptr %2, align 8
  %4 = getelementptr inbounds %"class.std::_Function_base", ptr %3, i32 0, i32 1
  %5 = load ptr, ptr %4, align 8
  %6 = icmp ne ptr %5, null
  %7 = xor i1 %6, true
  ret i1 %7
}

; Function Attrs: mustprogress uwtable
define linkonce_odr dso_local void @_ZNKSt8functionIFvfEEclEf(ptr noundef nonnull align 8 dereferenceable(32) %0, float noundef %1) #0 comdat align 2 {
  %3 = alloca ptr, align 8
  %4 = alloca float, align 4
  store ptr %0, ptr %3, align 8
  store float %1, ptr %4, align 4
  %5 = load ptr, ptr %3, align 8
  %6 = call noundef zeroext i1 @_ZNKSt14_Function_base8_M_emptyEv(ptr noundef nonnull align 8 dereferenceable(24) %5)
  br i1 %6, label %7, label %8

7:                                                ; preds = %2
  call void @_ZSt25__throw_bad_function_callv() #13
  unreachable

8:                                                ; preds = %2
  %9 = getelementptr inbounds %"class.std::function", ptr %5, i32 0, i32 1
  %10 = load ptr, ptr %9, align 8
  %11 = getelementptr inbounds %"class.std::_Function_base", ptr %5, i32 0, i32 0
  call void %10(ptr noundef nonnull align 8 dereferenceable(16) %11, ptr noundef nonnull align 4 dereferenceable(4) %4)
  ret void
}

; Function Attrs: mustprogress nounwind uwtable
define linkonce_odr dso_local noundef zeroext i1 @_ZNKSt8functionIFvfEEcvbEv(ptr noundef nonnull align 8 dereferenceable(32) %0) #2 comdat align 2 personality ptr @__gxx_personality_v0 {
  %2 = alloca ptr, align 8
  store ptr %0, ptr %2, align 8
  %3 = load ptr, ptr %2, align 8
  %4 = invoke noundef zeroext i1 @_ZNKSt14_Function_base8_M_emptyEv(ptr noundef nonnull align 8 dereferenceable(24) %3)
          to label %5 unwind label %7

5:                                                ; preds = %1
  %6 = xor i1 %4, true
  ret i1 %6

7:                                                ; preds = %1
  %8 = landingpad { ptr, i32 }
          catch ptr null
  %9 = extractvalue { ptr, i32 } %8, 0
  call void @__clang_call_terminate(ptr %9) #12
  unreachable
}

; Function Attrs: mustprogress nounwind uwtable
define linkonce_odr dso_local noundef nonnull align 4 dereferenceable(4) ptr @_ZSt3minIfERKT_S2_S2_(ptr noundef nonnull align 4 dereferenceable(4) %0, ptr noundef nonnull align 4 dereferenceable(4) %1) #2 comdat {
  %3 = alloca ptr, align 8
  %4 = alloca ptr, align 8
  %5 = alloca ptr, align 8
  store ptr %0, ptr %4, align 8
  store ptr %1, ptr %5, align 8
  %6 = load ptr, ptr %5, align 8
  %7 = load float, ptr %6, align 4
  %8 = load ptr, ptr %4, align 8
  %9 = load float, ptr %8, align 4
  %10 = fcmp olt float %7, %9
  br i1 %10, label %11, label %13

11:                                               ; preds = %2
  %12 = load ptr, ptr %5, align 8
  store ptr %12, ptr %3, align 8
  br label %15

13:                                               ; preds = %2
  %14 = load ptr, ptr %4, align 8
  store ptr %14, ptr %3, align 8
  br label %15

15:                                               ; preds = %13, %11
  %16 = load ptr, ptr %3, align 8
  ret ptr %16
}

; Function Attrs: mustprogress nounwind uwtable
define linkonce_odr dso_local noundef nonnull align 4 dereferenceable(4) ptr @_ZSt3maxIfERKT_S2_S2_(ptr noundef nonnull align 4 dereferenceable(4) %0, ptr noundef nonnull align 4 dereferenceable(4) %1) #2 comdat {
  %3 = alloca ptr, align 8
  %4 = alloca ptr, align 8
  %5 = alloca ptr, align 8
  store ptr %0, ptr %4, align 8
  store ptr %1, ptr %5, align 8
  %6 = load ptr, ptr %4, align 8
  %7 = load float, ptr %6, align 4
  %8 = load ptr, ptr %5, align 8
  %9 = load float, ptr %8, align 4
  %10 = fcmp olt float %7, %9
  br i1 %10, label %11, label %13

11:                                               ; preds = %2
  %12 = load ptr, ptr %5, align 8
  store ptr %12, ptr %3, align 8
  br label %15

13:                                               ; preds = %2
  %14 = load ptr, ptr %4, align 8
  store ptr %14, ptr %3, align 8
  br label %15

15:                                               ; preds = %13, %11
  %16 = load ptr, ptr %3, align 8
  ret ptr %16
}

; Function Attrs: mustprogress nounwind uwtable
define linkonce_odr hidden noundef nonnull align 4 dereferenceable(4) ptr @_ZNK7nanogui5ArrayIiLm2EE1xILm2ETnNSt9enable_ifIXgeT_Li1EEiE4typeELi0EEERKiv(ptr noundef nonnull align 4 dereferenceable(8) %0) #2 comdat align 2 {
  %2 = alloca ptr, align 8
  store ptr %0, ptr %2, align 8
  %3 = load ptr, ptr %2, align 8
  %4 = getelementptr inbounds %"struct.nanogui::Array", ptr %3, i32 0, i32 0
  %5 = getelementptr inbounds [2 x i32], ptr %4, i64 0, i64 0
  ret ptr %5
}

; Function Attrs: mustprogress nounwind uwtable
define linkonce_odr hidden noundef nonnull align 4 dereferenceable(4) ptr @_ZN7nanogui5ArrayIiLm2EE1xILm2ETnNSt9enable_ifIXgeT_Li1EEiE4typeELi0EEERiv(ptr noundef nonnull align 4 dereferenceable(8) %0) #2 comdat align 2 {
  %2 = alloca ptr, align 8
  store ptr %0, ptr %2, align 8
  %3 = load ptr, ptr %2, align 8
  %4 = getelementptr inbounds %"struct.nanogui::Array", ptr %3, i32 0, i32 0
  %5 = getelementptr inbounds [2 x i32], ptr %4, i64 0, i64 0
  ret ptr %5
}

; Function Attrs: mustprogress nounwind uwtable
define linkonce_odr hidden noundef nonnull align 4 dereferenceable(4) ptr @_ZN7nanogui5ArrayIiLm2EE1yILm2ETnNSt9enable_ifIXgeT_Li2EEiE4typeELi0EEERiv(ptr noundef nonnull align 4 dereferenceable(8) %0) #2 comdat align 2 {
  %2 = alloca ptr, align 8
  store ptr %0, ptr %2, align 8
  %3 = load ptr, ptr %2, align 8
  %4 = getelementptr inbounds %"struct.nanogui::Array", ptr %3, i32 0, i32 0
  %5 = getelementptr inbounds [2 x i32], ptr %4, i64 0, i64 1
  ret ptr %5
}

; Function Attrs: mustprogress uwtable
define hidden noundef zeroext i1 @_ZN7nanogui6Slider18mouse_button_eventERKNS_5ArrayIiLm2EEEibi(ptr noundef nonnull align 8 dereferenceable(240) %0, ptr noundef nonnull align 4 dereferenceable(8) %1, i32 noundef %2, i1 noundef zeroext %3, i32 noundef %4) unnamed_addr #0 align 2 {
  %6 = alloca i1, align 1
  %7 = alloca ptr, align 8
  %8 = alloca ptr, align 8
  %9 = alloca i32, align 4
  %10 = alloca i8, align 1
  %11 = alloca i32, align 4
  %12 = alloca float, align 4
  %13 = alloca float, align 4
  %14 = alloca float, align 4
  %15 = alloca float, align 4
  %16 = alloca float, align 4
  %17 = alloca float, align 4
  store ptr %0, ptr %7, align 8
  store ptr %1, ptr %8, align 8
  store i32 %2, ptr %9, align 4
  %18 = zext i1 %3 to i8
  store i8 %18, ptr %10, align 1
  store i32 %4, ptr %11, align 4
  %19 = load ptr, ptr %7, align 8
  %20 = getelementptr inbounds %"class.nanogui::Widget", ptr %19, i32 0, i32 10
  %21 = load i8, ptr %20, align 1
  %22 = trunc i8 %21 to i1
  br i1 %22, label %24, label %23

23:                                               ; preds = %5
  store i1 false, ptr %6, align 1
  br label %99

24:                                               ; preds = %5
  %25 = getelementptr inbounds %"class.nanogui::Widget", ptr %19, i32 0, i32 6
  %26 = call noundef nonnull align 4 dereferenceable(4) ptr @_ZN7nanogui5ArrayIiLm2EE1yILm2ETnNSt9enable_ifIXgeT_Li2EEiE4typeELi0EEERiv(ptr noundef nonnull align 4 dereferenceable(8) %25)
  %27 = load i32, ptr %26, align 4
  %28 = sitofp i32 %27 to float
  %29 = fmul float %28, 0x3FD99999A0000000
  %30 = fptosi float %29 to i32
  %31 = sitofp i32 %30 to float
  store float %31, ptr %12, align 4
  store float 3.000000e+00, ptr %13, align 4
  %32 = load float, ptr %12, align 4
  %33 = fadd float %32, 3.000000e+00
  %34 = getelementptr inbounds %"class.nanogui::Widget", ptr %19, i32 0, i32 5
  %35 = call noundef nonnull align 4 dereferenceable(4) ptr @_ZN7nanogui5ArrayIiLm2EE1xILm2ETnNSt9enable_ifIXgeT_Li1EEiE4typeELi0EEERiv(ptr noundef nonnull align 4 dereferenceable(8) %34)
  %36 = load i32, ptr %35, align 4
  %37 = sitofp i32 %36 to float
  %38 = fadd float %33, %37
  %39 = fsub float %38, 1.000000e+00
  store float %39, ptr %14, align 4
  %40 = getelementptr inbounds %"class.nanogui::Widget", ptr %19, i32 0, i32 6
  %41 = call noundef nonnull align 4 dereferenceable(4) ptr @_ZN7nanogui5ArrayIiLm2EE1xILm2ETnNSt9enable_ifIXgeT_Li1EEiE4typeELi0EEERiv(ptr noundef nonnull align 4 dereferenceable(8) %40)
  %42 = load i32, ptr %41, align 4
  %43 = sitofp i32 %42 to float
  %44 = load float, ptr %12, align 4
  %45 = fadd float %44, 3.000000e+00
  %46 = call float @llvm.fmuladd.f32(float -2.000000e+00, float %45, float %43)
  store float %46, ptr %15, align 4
  %47 = load ptr, ptr %8, align 8
  %48 = call noundef nonnull align 4 dereferenceable(4) ptr @_ZNK7nanogui5ArrayIiLm2EE1xILm2ETnNSt9enable_ifIXgeT_Li1EEiE4typeELi0EEERKiv(ptr noundef nonnull align 4 dereferenceable(8) %47)
  %49 = load i32, ptr %48, align 4
  %50 = sitofp i32 %49 to float
  %51 = load float, ptr %14, align 4
  %52 = fsub float %50, %51
  %53 = load float, ptr %15, align 4
  %54 = fdiv float %52, %53
  store float %54, ptr %16, align 4
  %55 = getelementptr inbounds %"class.nanogui::Slider", ptr %19, i32 0, i32 1
  %56 = load float, ptr %55, align 4
  store float %56, ptr %17, align 4
  %57 = load float, ptr %16, align 4
  %58 = getelementptr inbounds %"class.nanogui::Slider", ptr %19, i32 0, i32 4
  %59 = getelementptr inbounds %"struct.std::pair", ptr %58, i32 0, i32 1
  %60 = load float, ptr %59, align 4
  %61 = getelementptr inbounds %"class.nanogui::Slider", ptr %19, i32 0, i32 4
  %62 = getelementptr inbounds %"struct.std::pair", ptr %61, i32 0, i32 0
  %63 = load float, ptr %62, align 8
  %64 = fsub float %60, %63
  %65 = getelementptr inbounds %"class.nanogui::Slider", ptr %19, i32 0, i32 4
  %66 = getelementptr inbounds %"struct.std::pair", ptr %65, i32 0, i32 0
  %67 = load float, ptr %66, align 8
  %68 = call float @llvm.fmuladd.f32(float %57, float %64, float %67)
  store float %68, ptr %16, align 4
  %69 = getelementptr inbounds %"class.nanogui::Slider", ptr %19, i32 0, i32 4
  %70 = getelementptr inbounds %"struct.std::pair", ptr %69, i32 0, i32 0
  %71 = call noundef nonnull align 4 dereferenceable(4) ptr @_ZSt3maxIfERKT_S2_S2_(ptr noundef nonnull align 4 dereferenceable(4) %16, ptr noundef nonnull align 4 dereferenceable(4) %70)
  %72 = getelementptr inbounds %"class.nanogui::Slider", ptr %19, i32 0, i32 4
  %73 = getelementptr inbounds %"struct.std::pair", ptr %72, i32 0, i32 1
  %74 = call noundef nonnull align 4 dereferenceable(4) ptr @_ZSt3minIfERKT_S2_S2_(ptr noundef nonnull align 4 dereferenceable(4) %71, ptr noundef nonnull align 4 dereferenceable(4) %73)
  %75 = load float, ptr %74, align 4
  %76 = getelementptr inbounds %"class.nanogui::Slider", ptr %19, i32 0, i32 1
  store float %75, ptr %76, align 4
  %77 = getelementptr inbounds %"class.nanogui::Slider", ptr %19, i32 0, i32 2
  %78 = call noundef zeroext i1 @_ZNKSt8functionIFvfEEcvbEv(ptr noundef nonnull align 8 dereferenceable(32) %77) #11
  br i1 %78, label %79, label %88

79:                                               ; preds = %24
  %80 = getelementptr inbounds %"class.nanogui::Slider", ptr %19, i32 0, i32 1
  %81 = load float, ptr %80, align 4
  %82 = load float, ptr %17, align 4
  %83 = fcmp une float %81, %82
  br i1 %83, label %84, label %88

84:                                               ; preds = %79
  %85 = getelementptr inbounds %"class.nanogui::Slider", ptr %19, i32 0, i32 2
  %86 = getelementptr inbounds %"class.nanogui::Slider", ptr %19, i32 0, i32 1
  %87 = load float, ptr %86, align 4
  call void @_ZNKSt8functionIFvfEEclEf(ptr noundef nonnull align 8 dereferenceable(32) %85, float noundef %87)
  br label %88

88:                                               ; preds = %84, %79, %24
  %89 = getelementptr inbounds %"class.nanogui::Slider", ptr %19, i32 0, i32 3
  %90 = call noundef zeroext i1 @_ZNKSt8functionIFvfEEcvbEv(ptr noundef nonnull align 8 dereferenceable(32) %89) #11
  br i1 %90, label %91, label %98

91:                                               ; preds = %88
  %92 = load i8, ptr %10, align 1
  %93 = trunc i8 %92 to i1
  br i1 %93, label %98, label %94

94:                                               ; preds = %91
  %95 = getelementptr inbounds %"class.nanogui::Slider", ptr %19, i32 0, i32 3
  %96 = getelementptr inbounds %"class.nanogui::Slider", ptr %19, i32 0, i32 1
  %97 = load float, ptr %96, align 4
  call void @_ZNKSt8functionIFvfEEclEf(ptr noundef nonnull align 8 dereferenceable(32) %95, float noundef %97)
  br label %98

98:                                               ; preds = %94, %91, %88
  store i1 true, ptr %6, align 1
  br label %99

99:                                               ; preds = %98, %23
  %100 = load i1, ptr %6, align 1
  ret i1 %100
}