; Function Attrs: mustprogress uwtable
define hidden noundef zeroext i1 @_ZN7nanogui6Slider18mouse_button_eventERKNS_5ArrayIiLm2EEEibi(ptr noundef nonnull align 8 dereferenceable(240) %0, ptr nocapture noundef nonnull readonly align 4 dereferenceable(8) %1, i32 %2, i1 noundef zeroext %3, i32 %4) unnamed_addr #4 align 2 personality ptr @__gxx_personality_v0 {
  %6 = alloca float, align 4
  %7 = alloca float, align 4
  %8 = getelementptr inbounds i8, ptr %0, i64 89
  %9 = load i8, ptr %8, align 1
  %10 = and i8 %9, 1
  %.not = icmp ne i8 %10, 0
  br i1 %.not, label %11, label %57

11:                                               ; preds = %5
  %12 = getelementptr inbounds i8, ptr %0, i64 48
  %13 = getelementptr inbounds i8, ptr %0, i64 52
  %14 = load i32, ptr %13, align 4
  %15 = sitofp i32 %14 to float
  %16 = fmul float %15, 0x3FD99999A0000000
  %17 = fptosi float %16 to i32
  %18 = sitofp i32 %17 to float
  %19 = fadd float %18, 3.000000e+00
  %20 = getelementptr inbounds i8, ptr %0, i64 40
  %21 = load i32, ptr %20, align 8
  %22 = sitofp i32 %21 to float
  %23 = fadd float %19, %22
  %24 = fadd float %23, -1.000000e+00
  %25 = load i32, ptr %12, align 8
  %26 = sitofp i32 %25 to float
  %27 = tail call float @llvm.fmuladd.f32(float %19, float -2.000000e+00, float %26)
  %28 = load i32, ptr %1, align 4
  %29 = sitofp i32 %28 to float
  %30 = fsub float %29, %24
  %31 = fdiv float %30, %27
  %32 = getelementptr inbounds i8, ptr %0, i64 140
  %33 = load float, ptr %32, align 4
  %34 = getelementptr inbounds i8, ptr %0, i64 208
  %35 = getelementptr inbounds i8, ptr %0, i64 212
  %36 = load float, ptr %35, align 4
  %37 = load float, ptr %34, align 8
  %38 = fsub float %36, %37
  %39 = tail call float @llvm.fmuladd.f32(float %31, float %38, float %37)
  %40 = fcmp olt float %39, %37
  %41 = select i1 %40, float %37, float %39
  %42 = fcmp olt float %36, %41
  %43 = select i1 %42, float %36, float %41
  store float %43, ptr %32, align 4
  %44 = getelementptr inbounds i8, ptr %0, i64 160
  %45 = load ptr, ptr %44, align 8
  %.not.i.i = icmp ne ptr %45, null
  %46 = fcmp une float %43, %33
  %or.cond = select i1 %.not.i.i, i1 %46, i1 false
  br i1 %or.cond, label %_ZNKSt8functionIFvfEEclEf.exit, label %50

_ZNKSt8functionIFvfEEclEf.exit:                   ; preds = %11
  %47 = getelementptr inbounds i8, ptr %0, i64 144
  call void @llvm.lifetime.start.p0(i64 4, ptr nonnull %7)
  store float %43, ptr %7, align 4
  %48 = getelementptr inbounds i8, ptr %0, i64 168
  %49 = load ptr, ptr %48, align 8
  call void %49(ptr noundef nonnull align 8 dereferenceable(16) %47, ptr noundef nonnull align 4 dereferenceable(4) %7)
  call void @llvm.lifetime.end.p0(i64 4, ptr nonnull %7)
  br label %50

50:                                               ; preds = %_ZNKSt8functionIFvfEEclEf.exit, %11
  %51 = getelementptr inbounds i8, ptr %0, i64 192
  %52 = load ptr, ptr %51, align 8
  %.not.i.i12.not = icmp eq ptr %52, null
  %brmerge = or i1 %.not.i.i12.not, %3
  br i1 %brmerge, label %57, label %_ZNKSt8functionIFvfEEclEf.exit14

_ZNKSt8functionIFvfEEclEf.exit14:                 ; preds = %50
  %53 = getelementptr inbounds i8, ptr %0, i64 176
  %54 = load float, ptr %32, align 4
  call void @llvm.lifetime.start.p0(i64 4, ptr nonnull %6)
  store float %54, ptr %6, align 4
  %55 = getelementptr inbounds i8, ptr %0, i64 200
  %56 = load ptr, ptr %55, align 8
  call void %56(ptr noundef nonnull align 8 dereferenceable(16) %53, ptr noundef nonnull align 4 dereferenceable(4) %6)
  call void @llvm.lifetime.end.p0(i64 4, ptr nonnull %6)
  br label %57

57:                                               ; preds = %_ZNKSt8functionIFvfEEclEf.exit14, %50, %5
  ret i1 %.not
}